; ModuleID = '60/1475.c'
source_filename = "60/1475.c"
target datalayout = "e-m:e-p270:32:32-p271:32:32-p272:64:64-i64:64-f80:128-n8:16:32:64-S128"
target triple = "x86_64-pc-linux-gnu"

@.str = private unnamed_addr constant [3 x i8] c"%d\00", align 1
@.str.1 = private unnamed_addr constant [6 x i8] c"empty\00", align 1
@.str.2 = private unnamed_addr constant [7 x i8] c"%d %d\0A\00", align 1

; Function Attrs: noinline nounwind uwtable
define dso_local i32 @main() #0 {
  %1 = alloca i32, align 4
  %2 = alloca i32, align 4
  %3 = alloca i32, align 4
  %4 = alloca i32, align 4
  %5 = alloca i32, align 4
  store i32 0, i32* %1, align 4
  %6 = call i32 (i8*, ...) @__isoc99_scanf(i8* getelementptr inbounds ([3 x i8], [3 x i8]* @.str, i64 0, i64 0), i32* %2)
  %7 = load i32, i32* %2, align 4
  %8 = icmp slt i32 %7, 5
  br i1 %8, label %9, label %11

9:                                                ; preds = %0
  %10 = call i32 (i8*, ...) @printf(i8* getelementptr inbounds ([6 x i8], [6 x i8]* @.str.1, i64 0, i64 0))
  br label %35

11:                                               ; preds = %0
  store i32 4, i32* %5, align 4
  br label %12

12:                                               ; preds = %31, %11
  %13 = load i32, i32* %5, align 4
  %14 = load i32, i32* %2, align 4
  %15 = icmp sle i32 %13, %14
  br i1 %15, label %16, label %34

16:                                               ; preds = %12
  %17 = load i32, i32* %5, align 4
  %18 = call i32 @s(i32 %17)
  %19 = icmp eq i32 %18, 1
  br i1 %19, label %20, label %30

20:                                               ; preds = %16
  %21 = load i32, i32* %5, align 4
  %22 = sub nsw i32 %21, 2
  %23 = call i32 @s(i32 %22)
  %24 = icmp eq i32 %23, 1
  br i1 %24, label %25, label %30

25:                                               ; preds = %20
  %26 = load i32, i32* %5, align 4
  %27 = sub nsw i32 %26, 2
  %28 = load i32, i32* %5, align 4
  %29 = call i32 (i8*, ...) @printf(i8* getelementptr inbounds ([7 x i8], [7 x i8]* @.str.2, i64 0, i64 0), i32 %27, i32 %28)
  br label %30

30:                                               ; preds = %25, %20, %16
  br label %31

31:                                               ; preds = %30
  %32 = load i32, i32* %5, align 4
  %33 = add nsw i32 %32, 1
  store i32 %33, i32* %5, align 4
  br label %12

34:                                               ; preds = %12
  br label %35

35:                                               ; preds = %34, %9
  %36 = load i32, i32* %1, align 4
  ret i32 %36
}

declare dso_local i32 @__isoc99_scanf(i8*, ...) #1

declare dso_local i32 @printf(i8*, ...) #1

; Function Attrs: noinline nounwind uwtable
define dso_local i32 @s(i32 %0) #0 {
  %2 = alloca i32, align 4
  %3 = alloca i32, align 4
  %4 = alloca i32, align 4
  store i32 %0, i32* %2, align 4
  store i32 0, i32* %4, align 4
  store i32 2, i32* %3, align 4
  br label %5

5:                                                ; preds = %22, %1
  %6 = load i32, i32* %3, align 4
  %7 = load i32, i32* %2, align 4
  %8 = icmp slt i32 %6, %7
  br i1 %8, label %9, label %25

9:                                                ; preds = %5
  %10 = load i32, i32* %2, align 4
  %11 = load i32, i32* %3, align 4
  %12 = srem i32 %10, %11
  %13 = icmp eq i32 %12, 0
  br i1 %13, label %14, label %15

14:                                               ; preds = %9
  br label %25

15:                                               ; preds = %9
  %16 = load i32, i32* %3, align 4
  %17 = load i32, i32* %2, align 4
  %18 = sub nsw i32 %17, 1
  %19 = icmp eq i32 %16, %18
  br i1 %19, label %20, label %21

20:                                               ; preds = %15
  store i32 1, i32* %4, align 4
  br label %21

21:                                               ; preds = %20, %15
  br label %22

22:                                               ; preds = %21
  %23 = load i32, i32* %3, align 4
  %24 = add nsw i32 %23, 1
  store i32 %24, i32* %3, align 4
  br label %5

25:                                               ; preds = %14, %5
  %26 = load i32, i32* %4, align 4
  ret i32 %26
}


!llvm.module.flags = !{!0}
!llvm.ident = !{!1}

!0 = !{i32 1, !"wchar_size", i32 4}
!1 = !{!"clang version 10.0.0-4ubuntu1 "}
